; ModuleID = 'source-C-CXX/59/1755.c'
source_filename = "source-C-CXX/59/1755.c"
target datalayout = "e-m:e-p270:32:32-p271:32:32-p272:64:64-i64:64-f80:128-n8:16:32:64-S128"
target triple = "x86_64-pc-linux-gnu"

@.str = private unnamed_addr constant [3 x i8] c"%d\00", align 1
@.str.1 = private unnamed_addr constant [7 x i8] c"%d %d\0A\00", align 1
@.str.2 = private unnamed_addr constant [6 x i8] c"empty\00", align 1

; Function Attrs: nofree nounwind sspstrong uwtable
define dso_local i32 @ip(i32 %0) local_unnamed_addr #0 {
  %2 = icmp eq i32 %0, 2
  br i1 %2, label %18, label %3

3:                                                ; preds = %1
  %4 = and i32 %0, 1
  %5 = icmp eq i32 %4, 0
  br i1 %5, label %18, label %6

6:                                                ; preds = %3
  %7 = sitofp i32 %0 to double
  %8 = tail call double @sqrt(double %7) #4
  %9 = fptosi double %8 to i32
  %10 = icmp slt i32 %9, 3
  br i1 %10, label %18, label %13

11:                                               ; preds = %13
  %12 = icmp sgt i32 %17, %9
  br i1 %12, label %18, label %13, !llvm.loop !5

13:                                               ; preds = %6, %11
  %14 = phi i32 [ %17, %11 ], [ 3, %6 ]
  %15 = srem i32 %0, %14
  %16 = icmp eq i32 %15, 0
  %17 = add nuw nsw i32 %14, 2
  br i1 %16, label %18, label %11

18:                                               ; preds = %13, %11, %6, %3, %1
  %19 = phi i32 [ 1, %1 ], [ 0, %3 ], [ 1, %6 ], [ 0, %13 ], [ 1, %11 ]
  ret i32 %19
}

; Function Attrs: argmemonly mustprogress nofree nosync nounwind willreturn
declare void @llvm.lifetime.start.p0i8(i64 immarg, i8* nocapture) #1

; Function Attrs: mustprogress nofree nounwind willreturn
declare double @sqrt(double) local_unnamed_addr #2

; Function Attrs: argmemonly mustprogress nofree nosync nounwind willreturn
declare void @llvm.lifetime.end.p0i8(i64 immarg, i8* nocapture) #1

; Function Attrs: nofree nounwind sspstrong uwtable
define dso_local i32 @main() local_unnamed_addr #0 {
  %1 = alloca i32, align 4
  %2 = bitcast i32* %1 to i8*
  call void @llvm.lifetime.start.p0i8(i64 4, i8* nonnull %2) #4
  %3 = call i32 (i8*, ...) @__isoc99_scanf(i8* getelementptr inbounds ([3 x i8], [3 x i8]* @.str, i64 0, i64 0), i32* nonnull %1)
  %4 = load i32, i32* %1, align 4, !tbaa !7
  %5 = icmp sgt i32 %4, 4
  br i1 %5, label %6, label %43

6:                                                ; preds = %0, %35
  %7 = phi i32 [ %36, %35 ], [ 0, %0 ]
  %8 = phi i32 [ %37, %35 ], [ 3, %0 ]
  %9 = sitofp i32 %8 to double
  %10 = call double @sqrt(double %9) #4
  %11 = fptosi double %10 to i32
  %12 = icmp slt i32 %11, 3
  br i1 %12, label %20, label %15

13:                                               ; preds = %15
  %14 = icmp sgt i32 %19, %11
  br i1 %14, label %20, label %15, !llvm.loop !5

15:                                               ; preds = %6, %13
  %16 = phi i32 [ %19, %13 ], [ 3, %6 ]
  %17 = urem i32 %8, %16
  %18 = icmp eq i32 %17, 0
  %19 = add nuw nsw i32 %16, 2
  br i1 %18, label %35, label %13

20:                                               ; preds = %13, %6
  %21 = add nuw nsw i32 %8, 2
  %22 = sitofp i32 %21 to double
  %23 = call double @sqrt(double %22) #4
  %24 = fptosi double %23 to i32
  %25 = icmp slt i32 %24, 3
  br i1 %25, label %33, label %28

26:                                               ; preds = %28
  %27 = icmp sgt i32 %32, %24
  br i1 %27, label %33, label %28, !llvm.loop !5

28:                                               ; preds = %20, %26
  %29 = phi i32 [ %32, %26 ], [ 3, %20 ]
  %30 = urem i32 %21, %29
  %31 = icmp eq i32 %30, 0
  %32 = add nuw nsw i32 %29, 2
  br i1 %31, label %35, label %26

33:                                               ; preds = %26, %20
  %34 = call i32 (i8*, ...) @printf(i8* nonnull dereferenceable(1) getelementptr inbounds ([7 x i8], [7 x i8]* @.str.1, i64 0, i64 0), i32 %8, i32 %21)
  br label %35

35:                                               ; preds = %15, %28, %33
  %36 = phi i32 [ 1, %33 ], [ %7, %28 ], [ %7, %15 ]
  %37 = add nuw nsw i32 %8, 2
  %38 = load i32, i32* %1, align 4, !tbaa !7
  %39 = add nsw i32 %38, -1
  %40 = icmp slt i32 %37, %39
  br i1 %40, label %6, label %41, !llvm.loop !11

41:                                               ; preds = %35
  %42 = icmp eq i32 %36, 0
  br i1 %42, label %43, label %45

43:                                               ; preds = %0, %41
  %44 = call i32 (i8*, ...) @printf(i8* nonnull dereferenceable(1) getelementptr inbounds ([6 x i8], [6 x i8]* @.str.2, i64 0, i64 0))
  br label %45

45:                                               ; preds = %43, %41
  call void @llvm.lifetime.end.p0i8(i64 4, i8* nonnull %2) #4
  ret i32 0
}

; Function Attrs: nofree nounwind
declare noundef i32 @__isoc99_scanf(i8* nocapture noundef readonly, ...) local_unnamed_addr #3

; Function Attrs: nofree nounwind
declare noundef i32 @printf(i8* nocapture noundef readonly, ...) local_unnamed_addr #3


!llvm.module.flags = !{!0, !1, !2, !3}
!llvm.ident = !{!4}

!0 = !{i32 1, !"wchar_size", i32 4}
!1 = !{i32 7, !"PIC Level", i32 2}
!2 = !{i32 7, !"PIE Level", i32 2}
!3 = !{i32 7, !"uwtable", i32 1}
!4 = !{!"clang version 13.0.0"}
!5 = distinct !{!5, !6}
!6 = !{!"llvm.loop.mustprogress"}
!7 = !{!8, !8, i64 0}
!8 = !{!"int", !9, i64 0}
!9 = !{!"omnipotent char", !10, i64 0}
!10 = !{!"Simple C/C++ TBAA"}
!11 = distinct !{!11, !6}
